target datalayout = "e-m:e-p270:32:32-p271:32:32-p272:64:64-i64:64-i128:128-f80:128-n8:16:32:64-S128"
target triple = "x86_64-pc-linux-gnu"

@environ = external global ptr, align 8
@new_environ = internal global ptr null, align 8

; Function Attrs: nounwind uwtable
define dso_local void @fini_setproctitle() #0 {
  %1 = alloca i32, align 4
  %2 = alloca i32, align 4
  call void @llvm.lifetime.start.p0(i64 4, ptr %1) #9
  %3 = load ptr, ptr @new_environ, align 8
  %4 = icmp ne ptr %3, null
  br i1 %4, label %6, label %5

5:                                                ; preds = %0
  store i32 1, ptr %2, align 4
  br label %26

6:                                                ; preds = %0
  store i32 0, ptr %1, align 4
  br label %7

7:                                                ; preds = %20, %6
  %8 = load ptr, ptr @new_environ, align 8
  %9 = load i32, ptr %1, align 4
  %10 = sext i32 %9 to i64
  %11 = getelementptr inbounds ptr, ptr %8, i64 %10
  %12 = load ptr, ptr %11, align 8
  %13 = icmp ne ptr %12, null
  br i1 %13, label %14, label %23

14:                                               ; preds = %7
  %15 = load ptr, ptr @new_environ, align 8
  %16 = load i32, ptr %1, align 4
  %17 = sext i32 %16 to i64
  %18 = getelementptr inbounds ptr, ptr %15, i64 %17
  %19 = load ptr, ptr %18, align 8
  call void @free(ptr noundef %19) #9
  br label %20

20:                                               ; preds = %14
  %21 = load i32, ptr %1, align 4
  %22 = add nsw i32 %21, 1
  store i32 %22, ptr %1, align 4
  br label %7, !llvm.loop !13

23:                                               ; preds = %7
  %24 = load ptr, ptr @new_environ, align 8
  call void @free(ptr noundef %24) #9
  store ptr null, ptr @new_environ, align 8
  %25 = load ptr, ptr @new_environ, align 8
  store ptr %25, ptr @environ, align 8
  store i32 0, ptr %2, align 4
  br label %26

26:                                               ; preds = %23, %5
  call void @llvm.lifetime.end.p0(i64 4, ptr %1) #9
  %27 = load i32, ptr %2, align 4
  switch i32 %27, label %29 [
    i32 0, label %28
    i32 1, label %28
  ]

28:                                               ; preds = %26, %26
  ret void

29:                                               ; preds = %26
  unreachable
}