; Function Attrs: nounwind uwtable
define dso_local void @fini_setproctitle() local_unnamed_addr #6 {
  %1 = load ptr, ptr @new_environ, align 8
  %.not = icmp eq ptr %1, null
  br i1 %.not, label %6, label %.preheader

.preheader:                                       ; preds = %0
  %2 = load ptr, ptr %1, align 8
  %.not45 = icmp eq ptr %2, null
  br i1 %.not45, label %._crit_edge, label %.lr.ph

.lr.ph:                                           ; preds = %.preheader, %.lr.ph
  %indvars.iv = phi i64 [ %indvars.iv.next, %.lr.ph ], [ 0, %.preheader ]
  %3 = phi ptr [ %5, %.lr.ph ], [ %2, %.preheader ]
  tail call void @free(ptr noundef nonnull %3) #14
  %indvars.iv.next = add nuw nsw i64 %indvars.iv, 1
  %4 = getelementptr inbounds nuw ptr, ptr %1, i64 %indvars.iv.next
  %5 = load ptr, ptr %4, align 8
  %.not4 = icmp eq ptr %5, null
  br i1 %.not4, label %._crit_edge, label %.lr.ph, !llvm.loop !13

._crit_edge:                                      ; preds = %.lr.ph, %.preheader
  tail call void @free(ptr noundef nonnull %1) #14
  store ptr null, ptr @new_environ, align 8
  store ptr null, ptr @environ, align 8
  br label %6

6:                                                ; preds = %0, %._crit_edge
  ret void
}